target datalayout = "e-m:e-p270:32:32-p271:32:32-p272:64:64-i64:64-i128:128-f80:128-n8:16:32:64-S128"
target triple = "x86_64-pc-linux-gnu"

%struct.zbee_zcl_packet = type { i8, i8, i8, i8, i16, i8, i8 }
%struct._packet_info = type { ptr, ptr, i32, i32, %struct.nstime_t, %struct.nstime_t, %struct.nstime_t, i8, ptr, ptr, ptr, ptr, %struct._address, %struct._address, %struct._address, %struct._address, %struct._address, %struct._address, i32, ptr, i8, [3 x i8], %struct.anon, i32, i32, i32, i32, ptr, i8, ptr, ptr, i16, i16, i32, i32, i16, i32, i32, ptr, ptr, ptr, i8, i8, i16, i16, i16, i32, i16, i16, ptr, ptr, ptr, ptr, ptr, i32, i32 }
%struct.nstime_t = type { i64, i32 }
%struct._address = type { i32, i32, ptr, ptr }
%struct.anon = type { i8, [3 x i8] }

@hf_zbee_zcl_thermostat_srv_rx_cmd_id = internal global i32 0, align 4
@hf_zbee_zcl_thermostat_srv_tx_cmd_id = internal global i32 0, align 4
@hf_zbee_zcl_thermostat_setpoint_mode = internal global i32 0, align 4
@hf_zbee_zcl_thermostat_setpoint_amount = internal global i32 0, align 4
@hf_zbee_zcl_thermostat_schedule_day_sequence = internal global i32 0, align 4
@hf_zbee_zcl_thermostat_schedule_mode_sequence = internal global i32 0, align 4
@ett_zbee_zcl_thermostat_schedule_days = internal global i32 0, align 4
@ett_zbee_zcl_thermostat_schedule_mode = internal global i32 0, align 4
@zbee_zcl_thermostat_srv_tx_cmd_names = internal constant [3 x { i32, [4 x i8], ptr }] [{ i32, [4 x i8], ptr } { i32 0, [4 x i8] zeroinitializer, ptr @.str.142 }, { i32, [4 x i8], ptr } { i32 1, [4 x i8] zeroinitializer, ptr @.str.143 }, { i32, [4 x i8], ptr } zeroinitializer], align 16
@.str.149 = private unnamed_addr constant [12 x i8] c"%s, Seq: %u\00", align 1
@.str.150 = private unnamed_addr constant [16 x i8] c"Unknown Command\00", align 1
@dissect_zcl_thermostat_schedule_mode.thermostat_schedule_modes = internal constant [3 x ptr] [ptr @hf_zbee_zcl_thermostat_schedule_mode_heat, ptr @hf_zbee_zcl_thermostat_schedule_mode_cool, ptr null], align 16

; Function Attrs: null_pointer_is_valid sspstrong uwtable
define internal void @dissect_zcl_thermostat_schedule_mode(ptr noundef %0, ptr noundef %1, i32 noundef %2) #0 {
  %4 = alloca ptr, align 8
  %5 = alloca ptr, align 8
  %6 = alloca i32, align 4
  store ptr %0, ptr %4, align 8
  store ptr %1, ptr %5, align 8
  store i32 %2, ptr %6, align 4
  %7 = load ptr, ptr %4, align 8
  %8 = load ptr, ptr %5, align 8
  %9 = load i32, ptr %6, align 4
  %10 = load i32, ptr @hf_zbee_zcl_thermostat_schedule_mode_sequence, align 4
  %11 = load i32, ptr @ett_zbee_zcl_thermostat_schedule_mode, align 4
  %12 = call ptr @proto_tree_add_bitmask(ptr noundef %7, ptr noundef %8, i32 noundef %9, i32 noundef %10, i32 noundef %11, ptr noundef @dissect_zcl_thermostat_schedule_mode.thermostat_schedule_modes, i32 noundef 0)
  ret void
}

; Function Attrs: null_pointer_is_valid sspstrong uwtable
define internal void @dissect_zcl_thermostat_schedule_days(ptr noundef %0, ptr noundef %1, i32 noundef %2) #0 {
  %4 = alloca ptr, align 8
  %5 = alloca ptr, align 8
  %6 = alloca i32, align 4
  store ptr %0, ptr %4, align 8
  store ptr %1, ptr %5, align 8
  store i32 %2, ptr %6, align 4
  %7 = load ptr, ptr %4, align 8
  %8 = load ptr, ptr %5, align 8
  %9 = load i32, ptr %6, align 4
  %10 = load i32, ptr @hf_zbee_zcl_thermostat_schedule_day_sequence, align 4
  %11 = load i32, ptr @ett_zbee_zcl_thermostat_schedule_days, align 4
  %12 = call ptr @proto_tree_add_bitmask(ptr noundef %7, ptr noundef %8, i32 noundef %9, i32 noundef %10, i32 noundef %11, ptr noundef @dissect_zcl_thermostat_schedule_days.thermostat_schedule_days, i32 noundef 0)
  ret void
}

; Function Attrs: null_pointer_is_valid sspstrong uwtable
define internal i32 @dissect_zbee_zcl_thermostat(ptr noundef %0, ptr noundef %1, ptr noundef %2, ptr noundef %3) #0 {
  %5 = alloca i32, align 4
  %6 = alloca ptr, align 8
  %7 = alloca ptr, align 8
  %8 = alloca ptr, align 8
  %9 = alloca ptr, align 8
  %10 = alloca ptr, align 8
  %11 = alloca i32, align 4
  %12 = alloca i8, align 1
  %13 = alloca float, align 4
  %14 = alloca i32, align 4
  store ptr %0, ptr %6, align 8
  store ptr %1, ptr %7, align 8
  store ptr %2, ptr %8, align 8
  store ptr %3, ptr %9, align 8
  call void @llvm.lifetime.start.p0(i64 8, ptr %10) #3
  call void @llvm.lifetime.start.p0(i64 4, ptr %11) #3
  store i32 0, ptr %11, align 4
  call void @llvm.lifetime.start.p0(i64 1, ptr %12) #3
  call void @llvm.lifetime.start.p0(i64 4, ptr %13) #3
  %15 = load ptr, ptr %9, align 8
  %16 = icmp eq ptr %15, null
  br i1 %16, label %17, label %18

17:                                               ; preds = %4
  store i32 0, ptr %5, align 4
  store i32 1, ptr %14, align 4
  br label %120

18:                                               ; preds = %4
  %19 = load ptr, ptr %9, align 8
  store ptr %19, ptr %10, align 8
  %20 = load ptr, ptr %10, align 8
  %21 = getelementptr inbounds nuw %struct.zbee_zcl_packet, ptr %20, i32 0, i32 6
  %22 = load i8, ptr %21, align 1
  store i8 %22, ptr %12, align 1
  %23 = load ptr, ptr %10, align 8
  %24 = getelementptr inbounds nuw %struct.zbee_zcl_packet, ptr %23, i32 0, i32 1
  %25 = load i8, ptr %24, align 1, !range !6, !noundef !7
  %26 = trunc i8 %25 to i1
  %27 = zext i1 %26 to i32
  %28 = icmp eq i32 %27, 0
  br i1 %28, label %29, label %89

29:                                               ; preds = %18
  %30 = load ptr, ptr %7, align 8
  %31 = getelementptr inbounds nuw %struct._packet_info, ptr %30, i32 0, i32 1
  %32 = load ptr, ptr %31, align 8
  %33 = load i8, ptr %12, align 1
  %34 = zext i8 %33 to i32
  %35 = call ptr @val_to_str_const(i32 noundef %34, ptr noundef @zbee_zcl_thermostat_srv_rx_cmd_names, ptr noundef @.str.150)
  %36 = load ptr, ptr %10, align 8
  %37 = getelementptr inbounds nuw %struct.zbee_zcl_packet, ptr %36, i32 0, i32 5
  %38 = load i8, ptr %37, align 2
  %39 = zext i8 %38 to i32
  call void (ptr, i32, ptr, ...) @col_append_fstr(ptr noundef %32, i32 noundef 25, ptr noundef @.str.149, ptr noundef %35, i32 noundef %39)
  %40 = load ptr, ptr %8, align 8
  %41 = load i32, ptr @hf_zbee_zcl_thermostat_srv_rx_cmd_id, align 4
  %42 = load ptr, ptr %6, align 8
  %43 = load i32, ptr %11, align 4
  %44 = call ptr @proto_tree_add_item(ptr noundef %40, i32 noundef %41, ptr noundef %42, i32 noundef %43, i32 noundef 1, i32 noundef -2147483648)
  %45 = load i32, ptr %11, align 4
  %46 = add i32 %45, 1
  store i32 %46, ptr %11, align 4
  %47 = load i8, ptr %12, align 1
  %48 = zext i8 %47 to i32
  switch i32 %48, label %87 [
    i32 0, label %49
    i32 2, label %70
    i32 1, label %81
    i32 3, label %86
    i32 4, label %86
  ]

49:                                               ; preds = %29
  %50 = load ptr, ptr %8, align 8
  %51 = load i32, ptr @hf_zbee_zcl_thermostat_setpoint_mode, align 4
  %52 = load ptr, ptr %6, align 8
  %53 = load i32, ptr %11, align 4
  %54 = call ptr @proto_tree_add_item(ptr noundef %50, i32 noundef %51, ptr noundef %52, i32 noundef %53, i32 noundef 1, i32 noundef 0)
  %55 = load i32, ptr %11, align 4
  %56 = add i32 %55, 1
  store i32 %56, ptr %11, align 4
  %57 = load ptr, ptr %6, align 8
  %58 = load i32, ptr %11, align 4
  %59 = call signext i8 @tvb_get_int8(ptr noundef %57, i32 noundef %58)
  %60 = sitofp i8 %59 to float
  store float %60, ptr %13, align 4
  %61 = load ptr, ptr %8, align 8
  %62 = load i32, ptr @hf_zbee_zcl_thermostat_setpoint_amount, align 4
  %63 = load ptr, ptr %6, align 8
  %64 = load i32, ptr %11, align 4
  %65 = load float, ptr %13, align 4
  %66 = fdiv float %65, 1.000000e+02
  %67 = call ptr @proto_tree_add_float(ptr noundef %61, i32 noundef %62, ptr noundef %63, i32 noundef %64, i32 noundef 1, float noundef %66)
  %68 = load i32, ptr %11, align 4
  %69 = add i32 %68, 1
  store i32 %69, ptr %11, align 4
  br label %88

70:                                               ; preds = %29
  %71 = load ptr, ptr %8, align 8
  %72 = load ptr, ptr %6, align 8
  %73 = load i32, ptr %11, align 4
  call void @dissect_zcl_thermostat_schedule_days(ptr noundef %71, ptr noundef %72, i32 noundef %73)
  %74 = load i32, ptr %11, align 4
  %75 = add i32 %74, 1
  store i32 %75, ptr %11, align 4
  %76 = load ptr, ptr %8, align 8
  %77 = load ptr, ptr %6, align 8
  %78 = load i32, ptr %11, align 4
  call void @dissect_zcl_thermostat_schedule_mode(ptr noundef %76, ptr noundef %77, i32 noundef %78)
  %79 = load i32, ptr %11, align 4
  %80 = add i32 %79, 1
  store i32 %80, ptr %11, align 4
  br label %88

81:                                               ; preds = %29
  %82 = load ptr, ptr %8, align 8
  %83 = load ptr, ptr %6, align 8
  %84 = load i32, ptr %11, align 4
  %85 = call i32 @dissect_zcl_thermostat_schedule(ptr noundef %82, ptr noundef %83, i32 noundef %84)
  br label %88

86:                                               ; preds = %29, %29
  br label %87

87:                                               ; preds = %29, %86
  br label %88

88:                                               ; preds = %87, %81, %70, %49
  br label %117

89:                                               ; preds = %18
  %90 = load ptr, ptr %7, align 8
  %91 = getelementptr inbounds nuw %struct._packet_info, ptr %90, i32 0, i32 1
  %92 = load ptr, ptr %91, align 8
  %93 = load i8, ptr %12, align 1
  %94 = zext i8 %93 to i32
  %95 = call ptr @val_to_str_const(i32 noundef %94, ptr noundef @zbee_zcl_thermostat_srv_tx_cmd_names, ptr noundef @.str.150)
  %96 = load ptr, ptr %10, align 8
  %97 = getelementptr inbounds nuw %struct.zbee_zcl_packet, ptr %96, i32 0, i32 5
  %98 = load i8, ptr %97, align 2
  %99 = zext i8 %98 to i32
  call void (ptr, i32, ptr, ...) @col_append_fstr(ptr noundef %92, i32 noundef 25, ptr noundef @.str.149, ptr noundef %95, i32 noundef %99)
  %100 = load ptr, ptr %8, align 8
  %101 = load i32, ptr @hf_zbee_zcl_thermostat_srv_tx_cmd_id, align 4
  %102 = load ptr, ptr %6, align 8
  %103 = load i32, ptr %11, align 4
  %104 = call ptr @proto_tree_add_item(ptr noundef %100, i32 noundef %101, ptr noundef %102, i32 noundef %103, i32 noundef 1, i32 noundef -2147483648)
  %105 = load i32, ptr %11, align 4
  %106 = add i32 %105, 1
  store i32 %106, ptr %11, align 4
  %107 = load i8, ptr %12, align 1
  %108 = zext i8 %107 to i32
  switch i32 %108, label %115 [
    i32 0, label %109
    i32 1, label %114
  ]

109:                                              ; preds = %89
  %110 = load ptr, ptr %8, align 8
  %111 = load ptr, ptr %6, align 8
  %112 = load i32, ptr %11, align 4
  %113 = call i32 @dissect_zcl_thermostat_schedule(ptr noundef %110, ptr noundef %111, i32 noundef %112)
  br label %116

114:                                              ; preds = %89
  br label %115

115:                                              ; preds = %89, %114
  br label %116

116:                                              ; preds = %115, %109
  br label %117

117:                                              ; preds = %116, %88
  %118 = load ptr, ptr %6, align 8
  %119 = call i32 @tvb_captured_length(ptr noundef %118)
  store i32 %119, ptr %5, align 4
  store i32 1, ptr %14, align 4
  br label %120

120:                                              ; preds = %117, %17
  call void @llvm.lifetime.end.p0(i64 4, ptr %13) #3
  call void @llvm.lifetime.end.p0(i64 1, ptr %12) #3
  call void @llvm.lifetime.end.p0(i64 4, ptr %11) #3
  call void @llvm.lifetime.end.p0(i64 8, ptr %10) #3
  %121 = load i32, ptr %5, align 4
  ret i32 %121
}