; Function Attrs: null_pointer_is_valid sspstrong uwtable
define internal i32 @dissect_zbee_zcl_thermostat(ptr noundef %0, ptr noundef readonly captures(none) %1, ptr noundef %2, ptr noundef readonly captures(address_is_null) %3) #0 {
  %5 = icmp eq ptr %3, null
  br i1 %5, label %47, label %6

6:                                                ; preds = %4
  %7 = getelementptr inbounds nuw i8, ptr %3, i64 7
  %8 = load i8, ptr %7, align 1
  %9 = getelementptr inbounds nuw i8, ptr %3, i64 1
  %10 = load i8, ptr %9, align 1, !range !6, !noundef !7
  %11 = icmp eq i8 %10, 0
  %12 = getelementptr inbounds nuw i8, ptr %1, i64 8
  %13 = load ptr, ptr %12, align 8
  %14 = zext i8 %8 to i32
  %15 = getelementptr inbounds nuw i8, ptr %3, i64 6
  br i1 %11, label %16, label %38

16:                                               ; preds = %6
  %17 = tail call ptr @val_to_str_const(i32 noundef %14, ptr noundef nonnull @zbee_zcl_thermostat_srv_rx_cmd_names, ptr noundef nonnull @.str.150)
  %18 = load i8, ptr %15, align 2
  %19 = zext i8 %18 to i32
  tail call void (ptr, i32, ptr, ...) @col_append_fstr(ptr noundef %13, i32 noundef 25, ptr noundef nonnull @.str.149, ptr noundef %17, i32 noundef %19)
  %20 = load i32, ptr @hf_zbee_zcl_thermostat_srv_rx_cmd_id, align 4
  %21 = tail call ptr @proto_tree_add_item(ptr noundef %2, i32 noundef %20, ptr noundef %0, i32 noundef 0, i32 noundef 1, i32 noundef -2147483648)
  switch i8 %8, label %45 [
    i8 0, label %22
    i8 2, label %30
    i8 1, label %37
  ]

22:                                               ; preds = %16
  %23 = load i32, ptr @hf_zbee_zcl_thermostat_setpoint_mode, align 4
  %24 = tail call ptr @proto_tree_add_item(ptr noundef %2, i32 noundef %23, ptr noundef %0, i32 noundef 1, i32 noundef 1, i32 noundef 0)
  %25 = tail call signext i8 @tvb_get_int8(ptr noundef %0, i32 noundef 2)
  %26 = sitofp i8 %25 to float
  %27 = load i32, ptr @hf_zbee_zcl_thermostat_setpoint_amount, align 4
  %28 = fdiv float %26, 1.000000e+02
  %29 = tail call ptr @proto_tree_add_float(ptr noundef %2, i32 noundef %27, ptr noundef %0, i32 noundef 2, i32 noundef 1, float noundef %28)
  br label %45

30:                                               ; preds = %16
  %31 = load i32, ptr @hf_zbee_zcl_thermostat_schedule_day_sequence, align 4
  %32 = load i32, ptr @ett_zbee_zcl_thermostat_schedule_days, align 4
  %33 = tail call ptr @proto_tree_add_bitmask(ptr noundef %2, ptr noundef %0, i32 noundef 1, i32 noundef %31, i32 noundef %32, ptr noundef nonnull @dissect_zcl_thermostat_schedule_days.thermostat_schedule_days, i32 noundef 0)
  %34 = load i32, ptr @hf_zbee_zcl_thermostat_schedule_mode_sequence, align 4
  %35 = load i32, ptr @ett_zbee_zcl_thermostat_schedule_mode, align 4
  %36 = tail call ptr @proto_tree_add_bitmask(ptr noundef %2, ptr noundef %0, i32 noundef 2, i32 noundef %34, i32 noundef %35, ptr noundef nonnull @dissect_zcl_thermostat_schedule_mode.thermostat_schedule_modes, i32 noundef 0)
  br label %45

37:                                               ; preds = %16
  tail call fastcc void @dissect_zcl_thermostat_schedule(ptr noundef %2, ptr noundef %0)
  br label %45

38:                                               ; preds = %6
  %39 = tail call ptr @val_to_str_const(i32 noundef %14, ptr noundef nonnull @zbee_zcl_thermostat_srv_tx_cmd_names, ptr noundef nonnull @.str.150)
  %40 = load i8, ptr %15, align 2
  %41 = zext i8 %40 to i32
  tail call void (ptr, i32, ptr, ...) @col_append_fstr(ptr noundef %13, i32 noundef 25, ptr noundef nonnull @.str.149, ptr noundef %39, i32 noundef %41)
  %42 = load i32, ptr @hf_zbee_zcl_thermostat_srv_tx_cmd_id, align 4
  %43 = tail call ptr @proto_tree_add_item(ptr noundef %2, i32 noundef %42, ptr noundef %0, i32 noundef 0, i32 noundef 1, i32 noundef -2147483648)
  %cond = icmp eq i8 %8, 0
  br i1 %cond, label %44, label %45

44:                                               ; preds = %38
  tail call fastcc void @dissect_zcl_thermostat_schedule(ptr noundef %2, ptr noundef %0)
  br label %45

45:                                               ; preds = %38, %44, %22, %30, %37, %16
  %46 = tail call i32 @tvb_captured_length(ptr noundef %0)
  br label %47

47:                                               ; preds = %4, %45
  %.0 = phi i32 [ %46, %45 ], [ 0, %4 ]
  ret i32 %.0
}